target datalayout = "e-m:e-p270:32:32-p271:32:32-p272:64:64-i64:64-i128:128-f80:128-n8:16:32:64-S128"
target triple = "x86_64-pc-linux-gnu"

; Function Attrs: mustprogress uwtable
define void @_ZN19QualityMapperDialog20on_redButton_toggledEb(ptr noundef nonnull align 8 dereferenceable(824) %0, i1 noundef zeroext %1) #5 align 2 {
  %3 = alloca ptr, align 8
  %4 = alloca i8, align 1
  store ptr %0, ptr %3, align 8
  %5 = zext i1 %1 to i8
  store i8 %5, ptr %4, align 1
  %6 = load ptr, ptr %3, align 8
  %7 = load i8, ptr %4, align 1
  %8 = trunc i8 %7 to i1
  br i1 %8, label %9, label %10

9:                                                ; preds = %2
  call void @_ZN19QualityMapperDialog16moveAheadChannelE11TF_CHANNELS(ptr noundef nonnull align 8 dereferenceable(824) %6, i32 noundef 0)
  br label %10

10:                                               ; preds = %9, %2
  ret void
}